; ModuleID = '19/1240.c'
source_filename = "19/1240.c"
target datalayout = "e-m:e-p270:32:32-p271:32:32-p272:64:64-i64:64-f80:128-n8:16:32:64-S128"
target triple = "x86_64-pc-linux-gnu"

@.str = private unnamed_addr constant [5 x i8] c"%s%s\00", align 1
@.str.1 = private unnamed_addr constant [3 x i8] c"%s\00", align 1
@.str.2 = private unnamed_addr constant [2 x i8] c" \00", align 1

; Function Attrs: noinline nounwind uwtable
define dso_local void @main() #0 {
  %1 = alloca i8*, align 8
  %2 = alloca i8*, align 8
  %3 = alloca i8*, align 8
  %4 = alloca i8*, align 8
  %5 = alloca i8*, align 8
  %6 = alloca i32, align 4
  %7 = call noalias i8* @calloc(i64 102, i64 100) #4
  store i8* %7, i8** %1, align 8
  %8 = call noalias i8* @calloc(i64 102, i64 100) #4
  store i8* %8, i8** %2, align 8
  %9 = call noalias i8* @calloc(i64 102, i64 100) #4
  store i8* %9, i8** %3, align 8
  %10 = call noalias i8* @calloc(i64 102, i64 100) #4
  store i8* %10, i8** %4, align 8
  %11 = call noalias i8* @calloc(i64 240, i64 100) #4
  store i8* %11, i8** %5, align 8
  %12 = load i8*, i8** %1, align 8
  %13 = call i32 (i8*, ...) bitcast (i32 (...)* @gets to i32 (i8*, ...)*)(i8* %12)
  %14 = load i8*, i8** %2, align 8
  %15 = load i8*, i8** %3, align 8
  %16 = call i32 (i8*, ...) @__isoc99_scanf(i8* getelementptr inbounds ([5 x i8], [5 x i8]* @.str, i64 0, i64 0), i8* %14, i8* %15)
  br label %17

17:                                               ; preds = %50, %0
  %18 = load i8*, i8** %1, align 8
  %19 = load i8*, i8** %4, align 8
  %20 = call i32 (i8*, i8*, ...) @__isoc99_sscanf(i8* %18, i8* getelementptr inbounds ([3 x i8], [3 x i8]* @.str.1, i64 0, i64 0), i8* %19) #4
  %21 = load i8*, i8** %4, align 8
  %22 = call i64 @strlen(i8* %21) #5
  %23 = trunc i64 %22 to i32
  store i32 %23, i32* %6, align 4
  %24 = load i8*, i8** %1, align 8
  %25 = load i32, i32* %6, align 4
  %26 = sext i32 %25 to i64
  %27 = getelementptr inbounds i8, i8* %24, i64 %26
  %28 = getelementptr inbounds i8, i8* %27, i64 1
  store i8* %28, i8** %1, align 8
  %29 = load i8*, i8** %4, align 8
  %30 = load i8*, i8** %2, align 8
  %31 = call i32 @strcmp(i8* %29, i8* %30) #5
  %32 = icmp eq i32 %31, 0
  br i1 %32, label %33, label %37

33:                                               ; preds = %17
  %34 = load i8*, i8** %5, align 8
  %35 = load i8*, i8** %3, align 8
  %36 = call i8* @strcat(i8* %34, i8* %35) #4
  br label %41

37:                                               ; preds = %17
  %38 = load i8*, i8** %5, align 8
  %39 = load i8*, i8** %4, align 8
  %40 = call i8* @strcat(i8* %38, i8* %39) #4
  br label %41

41:                                               ; preds = %37, %33
  %42 = load i8*, i8** %1, align 8
  %43 = load i8, i8* %42, align 1
  %44 = sext i8 %43 to i32
  %45 = icmp ne i32 %44, 0
  br i1 %45, label %46, label %49

46:                                               ; preds = %41
  %47 = load i8*, i8** %5, align 8
  %48 = call i8* @strcat(i8* %47, i8* getelementptr inbounds ([2 x i8], [2 x i8]* @.str.2, i64 0, i64 0)) #4
  br label %49

49:                                               ; preds = %46, %41
  br label %50

50:                                               ; preds = %49
  %51 = load i8*, i8** %1, align 8
  %52 = load i8, i8* %51, align 1
  %53 = sext i8 %52 to i32
  %54 = icmp ne i32 %53, 0
  br i1 %54, label %17, label %55

55:                                               ; preds = %50
  %56 = load i8*, i8** %5, align 8
  %57 = call i32 (i8*, ...) @printf(i8* getelementptr inbounds ([3 x i8], [3 x i8]* @.str.1, i64 0, i64 0), i8* %56)
  ret void
}

; Function Attrs: nounwind
declare dso_local noalias i8* @calloc(i64, i64) #1

declare dso_local i32 @gets(...) #2

declare dso_local i32 @__isoc99_scanf(i8*, ...) #2

; Function Attrs: nounwind
declare dso_local i32 @__isoc99_sscanf(i8*, i8*, ...) #1

; Function Attrs: nounwind readonly
declare dso_local i64 @strlen(i8*) #3

; Function Attrs: nounwind readonly
declare dso_local i32 @strcmp(i8*, i8*) #3

; Function Attrs: nounwind
declare dso_local i8* @strcat(i8*, i8*) #1

declare dso_local i32 @printf(i8*, ...) #2


!llvm.module.flags = !{!0}
!llvm.ident = !{!1}

!0 = !{i32 1, !"wchar_size", i32 4}
!1 = !{!"clang version 10.0.0-4ubuntu1 "}
