; ModuleID = 'source-C-CXX/18/1240.c'
source_filename = "source-C-CXX/18/1240.c"
target datalayout = "e-m:e-p270:32:32-p271:32:32-p272:64:64-i64:64-f80:128-n8:16:32:64-S128"
target triple = "x86_64-pc-linux-gnu"

@.str = private unnamed_addr constant [5 x i8] c"%s%s\00", align 1
@.str.1 = private unnamed_addr constant [3 x i8] c"%s\00", align 1

; Function Attrs: nounwind sspstrong uwtable
define dso_local void @main() local_unnamed_addr #0 {
  %1 = tail call noalias align 16 dereferenceable_or_null(10200) i8* @calloc(i64 102, i64 100) #6
  %2 = tail call noalias align 16 dereferenceable_or_null(10200) i8* @calloc(i64 102, i64 100) #6
  %3 = tail call noalias align 16 dereferenceable_or_null(10200) i8* @calloc(i64 102, i64 100) #6
  %4 = tail call noalias align 16 dereferenceable_or_null(10200) i8* @calloc(i64 102, i64 100) #6
  %5 = tail call noalias align 16 dereferenceable_or_null(24000) i8* @calloc(i64 240, i64 100) #6
  %6 = tail call i32 (i8*, ...) bitcast (i32 (...)* @gets to i32 (i8*, ...)*)(i8* %1) #6
  %7 = tail call i32 (i8*, ...) @__isoc99_scanf(i8* getelementptr inbounds ([5 x i8], [5 x i8]* @.str, i64 0, i64 0), i8* %2, i8* %3)
  br label %8

8:                                                ; preds = %22, %0
  %9 = phi i8* [ %1, %0 ], [ %15, %22 ]
  %10 = tail call i32 (i8*, i8*, ...) @__isoc99_sscanf(i8* %9, i8* getelementptr inbounds ([3 x i8], [3 x i8]* @.str.1, i64 0, i64 0), i8* %4) #6
  %11 = tail call i64 @strlen(i8* noundef nonnull dereferenceable(1) %4) #7
  %12 = shl i64 %11, 32
  %13 = ashr exact i64 %12, 32
  %14 = add nsw i64 %13, 1
  %15 = getelementptr inbounds i8, i8* %9, i64 %14
  %16 = tail call i32 @strcmp(i8* noundef nonnull dereferenceable(1) %4, i8* noundef nonnull dereferenceable(1) %2) #7
  %17 = icmp eq i32 %16, 0
  %18 = select i1 %17, i8* %3, i8* %4
  %19 = tail call i8* @strcat(i8* noundef nonnull dereferenceable(1) %5, i8* noundef nonnull dereferenceable(1) %18) #6
  %20 = load i8, i8* %15, align 1, !tbaa !5
  %21 = icmp eq i8 %20, 0
  br i1 %21, label %26, label %22

22:                                               ; preds = %8
  %23 = tail call i64 @strlen(i8* noundef nonnull dereferenceable(1) %5)
  %24 = getelementptr i8, i8* %5, i64 %23
  %25 = bitcast i8* %24 to i16*
  store i16 32, i16* %25, align 1
  br label %8

26:                                               ; preds = %8
  %27 = tail call i32 (i8*, ...) @printf(i8* nonnull dereferenceable(1) getelementptr inbounds ([3 x i8], [3 x i8]* @.str.1, i64 0, i64 0), i8* %5)
  ret void
}

; Function Attrs: mustprogress nofree nounwind willreturn
declare noalias noundef align 16 i8* @calloc(i64 noundef, i64 noundef) local_unnamed_addr #1

declare i32 @gets(...) local_unnamed_addr #2

; Function Attrs: nofree nounwind
declare noundef i32 @__isoc99_scanf(i8* nocapture noundef readonly, ...) local_unnamed_addr #3

; Function Attrs: nofree nounwind
declare noundef i32 @__isoc99_sscanf(i8* nocapture noundef readonly, i8* nocapture noundef readonly, ...) local_unnamed_addr #3

; Function Attrs: argmemonly mustprogress nofree nounwind readonly willreturn
declare i64 @strlen(i8* nocapture) local_unnamed_addr #4

; Function Attrs: argmemonly mustprogress nofree nounwind readonly willreturn
declare i32 @strcmp(i8* nocapture, i8* nocapture) local_unnamed_addr #4

; Function Attrs: argmemonly mustprogress nofree nounwind willreturn
declare i8* @strcat(i8* noalias returned, i8* noalias nocapture readonly) local_unnamed_addr #5

; Function Attrs: nofree nounwind
declare noundef i32 @printf(i8* nocapture noundef readonly, ...) local_unnamed_addr #3


!llvm.module.flags = !{!0, !1, !2, !3}
!llvm.ident = !{!4}

!0 = !{i32 1, !"wchar_size", i32 4}
!1 = !{i32 7, !"PIC Level", i32 2}
!2 = !{i32 7, !"PIE Level", i32 2}
!3 = !{i32 7, !"uwtable", i32 1}
!4 = !{!"clang version 13.0.0"}
!5 = !{!6, !6, i64 0}
!6 = !{!"omnipotent char", !7, i64 0}
!7 = !{!"Simple C/C++ TBAA"}
